target datalayout = "e-m:e-p270:32:32-p271:32:32-p272:64:64-i64:64-i128:128-f80:128-n8:16:32:64-S128"
target triple = "x86_64-unknown-linux-gnu"

%"class.icu_75::SelectFormat" = type { %"class.icu_75::Format.base", [6 x i8], %"class.icu_75::MessagePattern" }
%"class.icu_75::Format.base" = type <{ %"class.icu_75::UObject", [157 x i8], [157 x i8] }>
%"class.icu_75::UObject" = type { ptr }
%"class.icu_75::MessagePattern" = type <{ %"class.icu_75::UObject", i32, [4 x i8], %"class.icu_75::UnicodeString", ptr, ptr, i32, [4 x i8], ptr, ptr, i32, i8, i8, i8, i8 }>
%"class.icu_75::UnicodeString" = type { %"class.icu_75::Replaceable", %"union.icu_75::UnicodeString::StackBufferOrFields" }
%"class.icu_75::Replaceable" = type { %"class.icu_75::UObject" }
%"union.icu_75::UnicodeString::StackBufferOrFields" = type { %struct.anon.0, [32 x i8] }
%struct.anon.0 = type { i16, i32, i32, ptr }
%struct.anon = type { i16, [27 x i16] }
%"class.icu_75::MessagePattern::Part" = type { i32, i32, i16, i16, i32 }

; Function Attrs: mustprogress nounwind uwtable
define linkonce_odr noundef i32 @_ZNK6icu_7514MessagePattern17getApostropheModeEv(ptr noundef nonnull align 8 dereferenceable(127) %this) #0 comdat align 2 {
entry:
  %this.addr = alloca ptr, align 8
  store ptr %this, ptr %this.addr, align 8
  %this1 = load ptr, ptr %this.addr, align 8
  %aposMode = getelementptr inbounds %"class.icu_75::MessagePattern", ptr %this1, i32 0, i32 1
  %0 = load i32, ptr %aposMode, align 8
  ret i32 %0
}

; Function Attrs: mustprogress nounwind uwtable
define linkonce_odr noundef i32 @_ZNK6icu_7513UnicodeString14getShortLengthEv(ptr noundef nonnull align 8 dereferenceable(64) %this) #0 comdat align 2 {
entry:
  %this.addr = alloca ptr, align 8
  store ptr %this, ptr %this.addr, align 8
  %this1 = load ptr, ptr %this.addr, align 8
  %fUnion = getelementptr inbounds %"class.icu_75::UnicodeString", ptr %this1, i32 0, i32 1
  %fLengthAndFlags = getelementptr inbounds %struct.anon.0, ptr %fUnion, i32 0, i32 0
  %0 = load i16, ptr %fLengthAndFlags, align 8
  %conv = sext i16 %0 to i32
  %shr = ashr i32 %conv, 5
  ret i32 %shr
}

; Function Attrs: mustprogress nounwind uwtable
define linkonce_odr noundef signext i8 @_ZNK6icu_7513UnicodeString14hasShortLengthEv(ptr noundef nonnull align 8 dereferenceable(64) %this) #0 comdat align 2 {
entry:
  %this.addr = alloca ptr, align 8
  store ptr %this, ptr %this.addr, align 8
  %this1 = load ptr, ptr %this.addr, align 8
  %fUnion = getelementptr inbounds %"class.icu_75::UnicodeString", ptr %this1, i32 0, i32 1
  %fLengthAndFlags = getelementptr inbounds %struct.anon.0, ptr %fUnion, i32 0, i32 0
  %0 = load i16, ptr %fLengthAndFlags, align 8
  %conv = sext i16 %0 to i32
  %cmp = icmp sge i32 %conv, 0
  %conv2 = zext i1 %cmp to i8
  ret i8 %conv2
}

; Function Attrs: mustprogress uwtable
define linkonce_odr noundef nonnull align 8 dereferenceable(64) ptr @_ZN6icu_7513UnicodeString6appendERKS0_ii(ptr noundef nonnull align 8 dereferenceable(64) %this, ptr noundef nonnull align 8 dereferenceable(64) %srcText, i32 noundef %srcStart, i32 noundef %srcLength) #1 comdat align 2 {
entry:
  %this.addr = alloca ptr, align 8
  %srcText.addr = alloca ptr, align 8
  %srcStart.addr = alloca i32, align 4
  %srcLength.addr = alloca i32, align 4
  store ptr %this, ptr %this.addr, align 8
  store ptr %srcText, ptr %srcText.addr, align 8
  store i32 %srcStart, ptr %srcStart.addr, align 4
  store i32 %srcLength, ptr %srcLength.addr, align 4
  %this1 = load ptr, ptr %this.addr, align 8
  %0 = load ptr, ptr %srcText.addr, align 8
  %1 = load i32, ptr %srcStart.addr, align 4
  %2 = load i32, ptr %srcLength.addr, align 4
  %call = call noundef nonnull align 8 dereferenceable(64) ptr @_ZN6icu_7513UnicodeString8doAppendERKS0_ii(ptr noundef nonnull align 8 dereferenceable(64) %this1, ptr noundef nonnull align 8 dereferenceable(64) %0, i32 noundef %1, i32 noundef %2)
  ret ptr %call
}

; Function Attrs: mustprogress nounwind uwtable
define linkonce_odr noundef i32 @_ZNK6icu_7514MessagePattern15getPatternIndexEi(ptr noundef nonnull align 8 dereferenceable(127) %this, i32 noundef %partIndex) #0 comdat align 2 {
entry:
  %this.addr = alloca ptr, align 8
  %partIndex.addr = alloca i32, align 4
  store ptr %this, ptr %this.addr, align 8
  store i32 %partIndex, ptr %partIndex.addr, align 4
  %this1 = load ptr, ptr %this.addr, align 8
  %0 = load i32, ptr %partIndex.addr, align 4
  %call = call noundef nonnull align 4 dereferenceable(16) ptr @_ZNK6icu_7514MessagePattern7getPartEi(ptr noundef nonnull align 8 dereferenceable(127) %this1, i32 noundef %0)
  %index = getelementptr inbounds %"class.icu_75::MessagePattern::Part", ptr %call, i32 0, i32 1
  %1 = load i32, ptr %index, align 4
  ret i32 %1
}

; Function Attrs: mustprogress nounwind uwtable
define linkonce_odr noundef nonnull align 8 dereferenceable(64) ptr @_ZNK6icu_7514MessagePattern16getPatternStringEv(ptr noundef nonnull align 8 dereferenceable(127) %this) #0 comdat align 2 {
entry:
  %this.addr = alloca ptr, align 8
  store ptr %this, ptr %this.addr, align 8
  %this1 = load ptr, ptr %this.addr, align 8
  %msg = getelementptr inbounds %"class.icu_75::MessagePattern", ptr %this1, i32 0, i32 3
  ret ptr %msg
}

; Function Attrs: mustprogress nounwind uwtable
define linkonce_odr noundef i32 @_ZNK6icu_7514MessagePattern17getLimitPartIndexEi(ptr noundef nonnull align 8 dereferenceable(127) %this, i32 noundef %start) #0 comdat align 2 {
entry:
  %retval = alloca i32, align 4
  %this.addr = alloca ptr, align 8
  %start.addr = alloca i32, align 4
  %limit = alloca i32, align 4
  store ptr %this, ptr %this.addr, align 8
  store i32 %start, ptr %start.addr, align 4
  %this1 = load ptr, ptr %this.addr, align 8
  %0 = load i32, ptr %start.addr, align 4
  %call = call noundef nonnull align 4 dereferenceable(16) ptr @_ZNK6icu_7514MessagePattern7getPartEi(ptr noundef nonnull align 8 dereferenceable(127) %this1, i32 noundef %0)
  %limitPartIndex = getelementptr inbounds %"class.icu_75::MessagePattern::Part", ptr %call, i32 0, i32 4
  %1 = load i32, ptr %limitPartIndex, align 4
  store i32 %1, ptr %limit, align 4
  %2 = load i32, ptr %limit, align 4
  %3 = load i32, ptr %start.addr, align 4
  %cmp = icmp slt i32 %2, %3
  br i1 %cmp, label %if.then, label %if.end

if.then:                                          ; preds = %entry
  %4 = load i32, ptr %start.addr, align 4
  store i32 %4, ptr %retval, align 4
  br label %return

if.end:                                           ; preds = %entry
  %5 = load i32, ptr %limit, align 4
  store i32 %5, ptr %retval, align 4
  br label %return

return:                                           ; preds = %if.end, %if.then
  %6 = load i32, ptr %retval, align 4
  ret i32 %6
}

; Function Attrs: mustprogress nounwind uwtable
define linkonce_odr noundef i32 @_ZNK6icu_7514MessagePattern4Part8getLimitEv(ptr noundef nonnull align 4 dereferenceable(16) %this) #0 comdat align 2 {
entry:
  %this.addr = alloca ptr, align 8
  store ptr %this, ptr %this.addr, align 8
  %this1 = load ptr, ptr %this.addr, align 8
  %index = getelementptr inbounds %"class.icu_75::MessagePattern::Part", ptr %this1, i32 0, i32 1
  %0 = load i32, ptr %index, align 4
  %length = getelementptr inbounds %"class.icu_75::MessagePattern::Part", ptr %this1, i32 0, i32 2
  %1 = load i16, ptr %length, align 4
  %conv = zext i16 %1 to i32
  %add = add nsw i32 %0, %conv
  ret i32 %add
}

; Function Attrs: mustprogress nounwind uwtable
define linkonce_odr noundef nonnull align 4 dereferenceable(16) ptr @_ZNK6icu_7514MessagePattern7getPartEi(ptr noundef nonnull align 8 dereferenceable(127) %this, i32 noundef %i) #0 comdat align 2 {
entry:
  %this.addr = alloca ptr, align 8
  %i.addr = alloca i32, align 4
  store ptr %this, ptr %this.addr, align 8
  store i32 %i, ptr %i.addr, align 4
  %this1 = load ptr, ptr %this.addr, align 8
  %parts = getelementptr inbounds %"class.icu_75::MessagePattern", ptr %this1, i32 0, i32 5
  %0 = load ptr, ptr %parts, align 8
  %1 = load i32, ptr %i.addr, align 4
  %idxprom = sext i32 %1 to i64
  %arrayidx = getelementptr inbounds %"class.icu_75::MessagePattern::Part", ptr %0, i64 %idxprom
  ret ptr %arrayidx
}

; Function Attrs: mustprogress uwtable
define linkonce_odr noundef signext i8 @_ZN6icu_7511MessageImpl11jdkAposModeERKNS_14MessagePatternE(ptr noundef nonnull align 8 dereferenceable(127) %msgPattern) #1 comdat align 2 {
entry:
  %msgPattern.addr = alloca ptr, align 8
  store ptr %msgPattern, ptr %msgPattern.addr, align 8
  %0 = load ptr, ptr %msgPattern.addr, align 8
  %call = call noundef i32 @_ZNK6icu_7514MessagePattern17getApostropheModeEv(ptr noundef nonnull align 8 dereferenceable(127) %0)
  %cmp = icmp eq i32 %call, 1
  %conv = zext i1 %cmp to i8
  ret i8 %conv
}

; Function Attrs: mustprogress nounwind uwtable
define linkonce_odr noundef i32 @_ZNK6icu_7514MessagePattern10countPartsEv(ptr noundef nonnull align 8 dereferenceable(127) %this) #0 comdat align 2 {
entry:
  %this.addr = alloca ptr, align 8
  store ptr %this, ptr %this.addr, align 8
  %this1 = load ptr, ptr %this.addr, align 8
  %partsLength = getelementptr inbounds %"class.icu_75::MessagePattern", ptr %this1, i32 0, i32 6
  %0 = load i32, ptr %partsLength, align 8
  ret i32 %0
}

; Function Attrs: mustprogress uwtable
define linkonce_odr noundef i32 @_ZNK6icu_7513UnicodeString6lengthEv(ptr noundef nonnull align 8 dereferenceable(64) %this) #1 comdat align 2 {
entry:
  %this.addr = alloca ptr, align 8
  store ptr %this, ptr %this.addr, align 8
  %this1 = load ptr, ptr %this.addr, align 8
  %call = call noundef signext i8 @_ZNK6icu_7513UnicodeString14hasShortLengthEv(ptr noundef nonnull align 8 dereferenceable(64) %this1)
  %tobool = icmp ne i8 %call, 0
  br i1 %tobool, label %cond.true, label %cond.false

cond.true:                                        ; preds = %entry
  %call2 = call noundef i32 @_ZNK6icu_7513UnicodeString14getShortLengthEv(ptr noundef nonnull align 8 dereferenceable(64) %this1)
  br label %cond.end

cond.false:                                       ; preds = %entry
  %fUnion = getelementptr inbounds %"class.icu_75::UnicodeString", ptr %this1, i32 0, i32 1
  %fLength = getelementptr inbounds %struct.anon.0, ptr %fUnion, i32 0, i32 1
  %0 = load i32, ptr %fLength, align 4
  br label %cond.end

cond.end:                                         ; preds = %cond.false, %cond.true
  %cond = phi i32 [ %call2, %cond.true ], [ %0, %cond.false ]
  ret i32 %cond
}

; Function Attrs: mustprogress nounwind uwtable
define linkonce_odr noundef ptr @_ZNK6icu_7513UnicodeString9getBufferEv(ptr noundef nonnull align 8 dereferenceable(64) %this) #0 comdat align 2 {
entry:
  %retval = alloca ptr, align 8
  %this.addr = alloca ptr, align 8
  store ptr %this, ptr %this.addr, align 8
  %this1 = load ptr, ptr %this.addr, align 8
  %fUnion = getelementptr inbounds %"class.icu_75::UnicodeString", ptr %this1, i32 0, i32 1
  %fLengthAndFlags = getelementptr inbounds %struct.anon.0, ptr %fUnion, i32 0, i32 0
  %0 = load i16, ptr %fLengthAndFlags, align 8
  %conv = sext i16 %0 to i32
  %and = and i32 %conv, 17
  %tobool = icmp ne i32 %and, 0
  br i1 %tobool, label %if.then, label %if.else

if.then:                                          ; preds = %entry
  store ptr null, ptr %retval, align 8
  br label %return

if.else:                                          ; preds = %entry
  %fUnion2 = getelementptr inbounds %"class.icu_75::UnicodeString", ptr %this1, i32 0, i32 1
  %fLengthAndFlags3 = getelementptr inbounds %struct.anon.0, ptr %fUnion2, i32 0, i32 0
  %1 = load i16, ptr %fLengthAndFlags3, align 8
  %conv4 = sext i16 %1 to i32
  %and5 = and i32 %conv4, 2
  %tobool6 = icmp ne i32 %and5, 0
  br i1 %tobool6, label %if.then7, label %if.else9

if.then7:                                         ; preds = %if.else
  %fUnion8 = getelementptr inbounds %"class.icu_75::UnicodeString", ptr %this1, i32 0, i32 1
  %fBuffer = getelementptr inbounds %struct.anon, ptr %fUnion8, i32 0, i32 1
  %arraydecay = getelementptr inbounds [27 x i16], ptr %fBuffer, i64 0, i64 0
  store ptr %arraydecay, ptr %retval, align 8
  br label %return

if.else9:                                         ; preds = %if.else
  %fUnion10 = getelementptr inbounds %"class.icu_75::UnicodeString", ptr %this1, i32 0, i32 1
  %fArray = getelementptr inbounds %struct.anon.0, ptr %fUnion10, i32 0, i32 3
  %2 = load ptr, ptr %fArray, align 8
  store ptr %2, ptr %retval, align 8
  br label %return

return:                                           ; preds = %if.else9, %if.then7, %if.then
  %3 = load ptr, ptr %retval, align 8
  ret ptr %3
}

; Function Attrs: mustprogress nounwind uwtable
define internal noundef signext i8 @_ZL9U_FAILURE10UErrorCode(i32 noundef %code) #0 {
entry:
  %code.addr = alloca i32, align 4
  store i32 %code, ptr %code.addr, align 4
  %0 = load i32, ptr %code.addr, align 4
  %cmp = icmp sgt i32 %0, 0
  %conv = zext i1 %cmp to i8
  ret i8 %conv
}

; Function Attrs: mustprogress uwtable
define noundef nonnull align 8 dereferenceable(64) ptr @_ZNK6icu_7512SelectFormat6formatERKNS_13UnicodeStringERS1_RNS_13FieldPositionER10UErrorCode(ptr noundef nonnull align 8 dereferenceable(456) %this, ptr noundef nonnull align 8 dereferenceable(64) %keyword, ptr noundef nonnull align 8 dereferenceable(64) %appendTo, ptr noundef nonnull align 8 dereferenceable(20) %0, ptr noundef nonnull align 4 dereferenceable(4) %status) #1 align 2 {
entry:
  %retval = alloca ptr, align 8
  %this.addr = alloca ptr, align 8
  %keyword.addr = alloca ptr, align 8
  %appendTo.addr = alloca ptr, align 8
  %.addr = alloca ptr, align 8
  %status.addr = alloca ptr, align 8
  %msgStart = alloca i32, align 4
  %patternStart = alloca i32, align 4
  %msgLimit = alloca i32, align 4
  store ptr %this, ptr %this.addr, align 8
  store ptr %keyword, ptr %keyword.addr, align 8
  store ptr %appendTo, ptr %appendTo.addr, align 8
  store ptr %0, ptr %.addr, align 8
  store ptr %status, ptr %status.addr, align 8
  %this1 = load ptr, ptr %this.addr, align 8
  %1 = load ptr, ptr %status.addr, align 8
  %2 = load i32, ptr %1, align 4
  %call = call noundef signext i8 @_ZL9U_FAILURE10UErrorCode(i32 noundef %2)
  %tobool = icmp ne i8 %call, 0
  br i1 %tobool, label %if.then, label %if.end

if.then:                                          ; preds = %entry
  %3 = load ptr, ptr %appendTo.addr, align 8
  store ptr %3, ptr %retval, align 8
  br label %return

if.end:                                           ; preds = %entry
  %4 = load ptr, ptr %keyword.addr, align 8
  %call2 = call noundef ptr @_ZNK6icu_7513UnicodeString9getBufferEv(ptr noundef nonnull align 8 dereferenceable(64) %4)
  %5 = load ptr, ptr %keyword.addr, align 8
  %call3 = call noundef i32 @_ZNK6icu_7513UnicodeString6lengthEv(ptr noundef nonnull align 8 dereferenceable(64) %5)
  %call4 = call noundef signext i8 @_ZN6icu_7512PatternProps12isIdentifierEPKDsi(ptr noundef %call2, i32 noundef %call3)
  %tobool5 = icmp ne i8 %call4, 0
  br i1 %tobool5, label %if.end7, label %if.then6

if.then6:                                         ; preds = %if.end
  %6 = load ptr, ptr %status.addr, align 8
  store i32 1, ptr %6, align 4
  br label %if.end7

if.end7:                                          ; preds = %if.then6, %if.end
  %msgPattern = getelementptr inbounds %"class.icu_75::SelectFormat", ptr %this1, i32 0, i32 2
  %call8 = call noundef i32 @_ZNK6icu_7514MessagePattern10countPartsEv(ptr noundef nonnull align 8 dereferenceable(127) %msgPattern)
  %cmp = icmp eq i32 %call8, 0
  br i1 %cmp, label %if.then9, label %if.end10

if.then9:                                         ; preds = %if.end7
  %7 = load ptr, ptr %status.addr, align 8
  store i32 27, ptr %7, align 4
  %8 = load ptr, ptr %appendTo.addr, align 8
  store ptr %8, ptr %retval, align 8
  br label %return

if.end10:                                         ; preds = %if.end7
  %msgPattern11 = getelementptr inbounds %"class.icu_75::SelectFormat", ptr %this1, i32 0, i32 2
  %9 = load ptr, ptr %keyword.addr, align 8
  %10 = load ptr, ptr %status.addr, align 8
  %call12 = call noundef i32 @_ZN6icu_7512SelectFormat14findSubMessageERKNS_14MessagePatternEiRKNS_13UnicodeStringER10UErrorCode(ptr noundef nonnull align 8 dereferenceable(127) %msgPattern11, i32 noundef 0, ptr noundef nonnull align 8 dereferenceable(64) %9, ptr noundef nonnull align 4 dereferenceable(4) %10)
  store i32 %call12, ptr %msgStart, align 4
  %msgPattern13 = getelementptr inbounds %"class.icu_75::SelectFormat", ptr %this1, i32 0, i32 2
  %call14 = call noundef signext i8 @_ZN6icu_7511MessageImpl11jdkAposModeERKNS_14MessagePatternE(ptr noundef nonnull align 8 dereferenceable(127) %msgPattern13)
  %tobool15 = icmp ne i8 %call14, 0
  br i1 %tobool15, label %if.end27, label %if.then16

if.then16:                                        ; preds = %if.end10
  %msgPattern17 = getelementptr inbounds %"class.icu_75::SelectFormat", ptr %this1, i32 0, i32 2
  %11 = load i32, ptr %msgStart, align 4
  %call18 = call noundef nonnull align 4 dereferenceable(16) ptr @_ZNK6icu_7514MessagePattern7getPartEi(ptr noundef nonnull align 8 dereferenceable(127) %msgPattern17, i32 noundef %11)
  %call19 = call noundef i32 @_ZNK6icu_7514MessagePattern4Part8getLimitEv(ptr noundef nonnull align 4 dereferenceable(16) %call18)
  store i32 %call19, ptr %patternStart, align 4
  %msgPattern20 = getelementptr inbounds %"class.icu_75::SelectFormat", ptr %this1, i32 0, i32 2
  %12 = load i32, ptr %msgStart, align 4
  %call21 = call noundef i32 @_ZNK6icu_7514MessagePattern17getLimitPartIndexEi(ptr noundef nonnull align 8 dereferenceable(127) %msgPattern20, i32 noundef %12)
  store i32 %call21, ptr %msgLimit, align 4
  %13 = load ptr, ptr %appendTo.addr, align 8
  %msgPattern22 = getelementptr inbounds %"class.icu_75::SelectFormat", ptr %this1, i32 0, i32 2
  %call23 = call noundef nonnull align 8 dereferenceable(64) ptr @_ZNK6icu_7514MessagePattern16getPatternStringEv(ptr noundef nonnull align 8 dereferenceable(127) %msgPattern22)
  %14 = load i32, ptr %patternStart, align 4
  %msgPattern24 = getelementptr inbounds %"class.icu_75::SelectFormat", ptr %this1, i32 0, i32 2
  %15 = load i32, ptr %msgLimit, align 4
  %call25 = call noundef i32 @_ZNK6icu_7514MessagePattern15getPatternIndexEi(ptr noundef nonnull align 8 dereferenceable(127) %msgPattern24, i32 noundef %15)
  %16 = load i32, ptr %patternStart, align 4
  %sub = sub nsw i32 %call25, %16
  %call26 = call noundef nonnull align 8 dereferenceable(64) ptr @_ZN6icu_7513UnicodeString6appendERKS0_ii(ptr noundef nonnull align 8 dereferenceable(64) %13, ptr noundef nonnull align 8 dereferenceable(64) %call23, i32 noundef %14, i32 noundef %sub)
  %17 = load ptr, ptr %appendTo.addr, align 8
  store ptr %17, ptr %retval, align 8
  br label %return

if.end27:                                         ; preds = %if.end10
  %msgPattern28 = getelementptr inbounds %"class.icu_75::SelectFormat", ptr %this1, i32 0, i32 2
  %18 = load i32, ptr %msgStart, align 4
  %19 = load ptr, ptr %appendTo.addr, align 8
  %call29 = call noundef nonnull align 8 dereferenceable(64) ptr @_ZN6icu_7511MessageImpl33appendSubMessageWithoutSkipSyntaxERKNS_14MessagePatternEiRNS_13UnicodeStringE(ptr noundef nonnull align 8 dereferenceable(127) %msgPattern28, i32 noundef %18, ptr noundef nonnull align 8 dereferenceable(64) %19)
  store ptr %call29, ptr %retval, align 8
  br label %return

return:                                           ; preds = %if.end27, %if.then16, %if.then9, %if.then
  %20 = load ptr, ptr %retval, align 8
  ret ptr %20
}